; Function Attrs: nounwind uwtable
define internal fastcc void @var_find_by_name(ptr noundef %0, ptr noundef writeonly captures(none) %1, i1 noundef zeroext %2) unnamed_addr #0 {
  %4 = alloca ptr, align 8
  call void @llvm.lifetime.start.p0(i64 8, ptr nonnull %4) #25
  %5 = tail call i64 @strlen(ptr noundef nonnull dereferenceable(1) %0) #30
  %6 = call i32 @pmix_hash_table_get_value_ptr(ptr noundef nonnull @pmix_mca_base_var_index_hash, ptr noundef nonnull %0, i64 noundef %5, ptr noundef nonnull %4) #25
  %.not = icmp eq i32 %6, 0
  br i1 %.not, label %7, label %27

7:                                                ; preds = %3
  %8 = load ptr, ptr %4, align 8, !tbaa !22
  %9 = ptrtoint ptr %8 to i64
  %10 = trunc i64 %9 to i32
  %11 = load i8, ptr @pmix_mca_base_var_initialized, align 1, !tbaa !54, !range !36, !noundef !37
  %12 = trunc nuw i8 %11 to i1
  br i1 %12, label %13, label %var_get.exit

13:                                               ; preds = %7
  %14 = icmp slt i32 %10, 0
  %15 = load i32, ptr getelementptr inbounds nuw (i8, ptr @pmix_mca_base_vars, i64 128), align 8
  %16 = icmp sle i32 %15, %10
  %or.cond.i = select i1 %14, i1 true, i1 %16
  br i1 %or.cond.i, label %var_get.exit, label %pmix_pointer_array_get_item.exit.i, !prof !63

pmix_pointer_array_get_item.exit.i:               ; preds = %13
  %17 = load ptr, ptr getelementptr inbounds nuw (i8, ptr @pmix_mca_base_vars, i64 152), align 8, !tbaa !58
  %18 = and i64 %9, 2147483647
  %19 = getelementptr inbounds nuw ptr, ptr %17, i64 %18
  %20 = load ptr, ptr %19, align 8, !tbaa !22
  br label %var_get.exit

var_get.exit:                                     ; preds = %pmix_pointer_array_get_item.exit.i, %7, %13
  %.010 = phi ptr [ null, %13 ], [ null, %7 ], [ %20, %pmix_pointer_array_get_item.exit.i ]
  br i1 %2, label %26, label %21

21:                                               ; preds = %var_get.exit
  %.not8 = icmp eq ptr %.010, null
  br i1 %.not8, label %27, label %22

22:                                               ; preds = %21
  %23 = getelementptr inbounds nuw i8, ptr %.010, i64 320
  %24 = load i32, ptr %23, align 8, !tbaa !61
  %25 = and i32 %24, 65536
  %.not9 = icmp eq i32 %25, 0
  br i1 %.not9, label %27, label %26

26:                                               ; preds = %22, %var_get.exit
  store i32 %10, ptr %1, align 4, !tbaa !16
  br label %27

27:                                               ; preds = %21, %22, %3, %26
  call void @llvm.lifetime.end.p0(i64 8, ptr nonnull %4) #25
  ret void
}